; Function Attrs: null_pointer_is_valid sspstrong uwtable
define internal i32 @dissect_atm_oam_cell(ptr noundef %0, ptr noundef %1, ptr noundef %2, ptr readnone captures(none) %3) #1 {
  %5 = getelementptr inbounds nuw i8, ptr %1, i64 8
  %6 = load ptr, ptr %5, align 8
  tail call void @col_set_str(ptr noundef %6, i32 noundef 35, ptr noundef nonnull @.str.147)
  %7 = load i32, ptr @proto_atm, align 4
  %8 = tail call ptr @proto_tree_add_item(ptr noundef %2, i32 noundef %7, ptr noundef %0, i32 noundef 0, i32 noundef 0, i32 noundef 0)
  %9 = load i32, ptr @ett_atm, align 4
  %10 = tail call ptr @proto_item_add_subtree(ptr noundef %8, i32 noundef %9)
  tail call fastcc void @dissect_atm_cell(ptr noundef %0, ptr noundef %1, ptr noundef %2, ptr noundef %10, i32 noundef 7, i1 noundef zeroext false, ptr noundef null)
  %11 = tail call i32 @tvb_reported_length(ptr noundef %0)
  ret i32 %11
}